target datalayout = "e-m:e-p270:32:32-p271:32:32-p272:64:64-i64:64-i128:128-f80:128-n8:16:32:64-S128"
target triple = "x86_64-pc-linux-gnu"

; Function Attrs: mustprogress uwtable
define dso_local noundef zeroext i1 @_ZNK17cmGlobalGenerator23NameResolvesToFrameworkERKNSt7__cxx1112basic_stringIcSt11char_traitsIcESaIcEEE(ptr noundef nonnull align 8 dereferenceable(1778) %0, ptr noundef nonnull align 8 dereferenceable(32) %1) #4 align 2 {
  %3 = alloca i1, align 1
  %4 = alloca ptr, align 8
  %5 = alloca ptr, align 8
  %6 = alloca ptr, align 8
  store ptr %0, ptr %4, align 8
  store ptr %1, ptr %5, align 8
  %7 = load ptr, ptr %4, align 8
  %8 = load ptr, ptr %5, align 8
  %9 = call noundef zeroext i1 @_ZN13cmSystemTools17IsPathToFrameworkERKNSt7__cxx1112basic_stringIcSt11char_traitsIcESaIcEEE(ptr noundef nonnull align 8 dereferenceable(32) %8)
  br i1 %9, label %10, label %11

10:                                               ; preds = %2
  store i1 true, ptr %3, align 1
  br label %22

11:                                               ; preds = %2
  %12 = load ptr, ptr %5, align 8
  %13 = call noundef ptr @_ZNK17cmGlobalGenerator10FindTargetERKNSt7__cxx1112basic_stringIcSt11char_traitsIcESaIcEEEb(ptr noundef nonnull align 8 dereferenceable(1778) %7, ptr noundef nonnull align 8 dereferenceable(32) %12, i1 noundef zeroext false)
  store ptr %13, ptr %6, align 8
  %14 = load ptr, ptr %6, align 8
  %15 = icmp ne ptr %14, null
  br i1 %15, label %16, label %21

16:                                               ; preds = %11
  %17 = load ptr, ptr %6, align 8
  %18 = call noundef zeroext i1 @_ZNK8cmTarget18IsFrameworkOnAppleEv(ptr noundef nonnull align 8 dereferenceable(8) %17)
  br i1 %18, label %19, label %20

19:                                               ; preds = %16
  store i1 true, ptr %3, align 1
  br label %22

20:                                               ; preds = %16
  br label %21

21:                                               ; preds = %20, %11
  store i1 false, ptr %3, align 1
  br label %22

22:                                               ; preds = %21, %19, %10
  %23 = load i1, ptr %3, align 1
  ret i1 %23
}