; Function Attrs: mustprogress uwtable
define dso_local noundef zeroext i1 @_ZNK17cmGlobalGenerator23NameResolvesToFrameworkERKNSt7__cxx1112basic_stringIcSt11char_traitsIcESaIcEEE(ptr noundef nonnull align 8 dereferenceable(1778) %0, ptr noundef nonnull align 8 dereferenceable(32) %1) local_unnamed_addr #3 align 2 {
  %3 = tail call noundef zeroext i1 @_ZN13cmSystemTools17IsPathToFrameworkERKNSt7__cxx1112basic_stringIcSt11char_traitsIcESaIcEEE(ptr noundef nonnull align 8 dereferenceable(32) %1)
  br i1 %3, label %9, label %4

4:                                                ; preds = %2
  %5 = tail call noundef ptr @_ZNK17cmGlobalGenerator10FindTargetERKNSt7__cxx1112basic_stringIcSt11char_traitsIcESaIcEEEb(ptr noundef nonnull align 8 dereferenceable(1778) %0, ptr noundef nonnull align 8 dereferenceable(32) %1, i1 noundef zeroext false)
  %.not = icmp eq ptr %5, null
  br i1 %.not, label %8, label %6

6:                                                ; preds = %4
  %7 = tail call noundef zeroext i1 @_ZNK8cmTarget18IsFrameworkOnAppleEv(ptr noundef nonnull align 8 dereferenceable(8) %5)
  br i1 %7, label %9, label %8

8:                                                ; preds = %6, %4
  br label %9

9:                                                ; preds = %6, %2, %8
  %.0 = phi i1 [ false, %8 ], [ true, %2 ], [ true, %6 ]
  ret i1 %.0
}